target datalayout = "e-m:e-p270:32:32-p271:32:32-p272:64:64-i64:64-i128:128-f80:128-n8:16:32:64-S128"
target triple = "x86_64-pc-linux-gnu"

%"class.std::__cxx11::basic_string" = type { %"struct.std::__cxx11::basic_string<char>::_Alloc_hider", i64, %union.anon }
%"struct.std::__cxx11::basic_string<char>::_Alloc_hider" = type { ptr }
%union.anon = type { i64, [8 x i8] }
%"class.std::basic_string_view" = type { i64, ptr }
%"class.std::shared_ptr" = type { %"class.std::__shared_ptr" }
%"class.std::__shared_ptr" = type { ptr, %"class.std::__shared_count" }
%"class.std::__shared_count" = type { ptr }
%"class.nix::AutoCloseFD" = type { i32 }
%"struct.std::array" = type { [65536 x i8] }

@_ZTIN3nix5ErrorE = linkonce_odr constant { ptr, ptr, ptr } { ptr getelementptr inbounds (ptr, ptr @_ZTVN10__cxxabiv120__si_class_type_infoE, i64 2), ptr @_ZTSN3nix5ErrorE, ptr @_ZTIN3nix9BaseErrorE }, comdat, align 8
@_ZTIN3nix8SysErrorE = linkonce_odr constant { ptr, ptr, ptr } { ptr getelementptr inbounds (ptr, ptr @_ZTVN10__cxxabiv120__si_class_type_infoE, i64 2), ptr @_ZTSN3nix8SysErrorE, ptr @_ZTIN3nix11SystemErrorE }, comdat, align 8
@.str.14 = private unnamed_addr constant [19 x i8] c"opening file '%1%'\00", align 1
@.str.16 = private unnamed_addr constant [19 x i8] c"writing file '%1%'\00", align 1
@_ZTIN3nix9EndOfFileE = linkonce_odr constant { ptr, ptr, ptr } { ptr getelementptr inbounds (ptr, ptr @_ZTVN10__cxxabiv120__si_class_type_infoE, i64 2), ptr @_ZTSN3nix9EndOfFileE, ptr @_ZTIN3nix5ErrorE }, comdat, align 8

; Function Attrs: mustprogress nounwind uwtable
define linkonce_odr void @_ZNSt14__shared_countILN9__gnu_cxx12_Lock_policyE2EEC2Ev(ptr noundef nonnull align 8 dereferenceable(8) %0) unnamed_addr #2 comdat align 2 {
  %2 = alloca ptr, align 8
  store ptr %0, ptr %2, align 8
  %3 = load ptr, ptr %2, align 8
  %4 = getelementptr inbounds %"class.std::__shared_count", ptr %3, i32 0, i32 0
  store ptr null, ptr %4, align 8
  ret void
}

; Function Attrs: mustprogress nounwind uwtable
define linkonce_odr noundef i64 @_ZNSt11char_traitsIcE6lengthEPKc(ptr noundef %0) #2 comdat align 2 {
  %2 = alloca ptr, align 8
  store ptr %0, ptr %2, align 8
  %3 = load ptr, ptr %2, align 8
  %4 = call i64 @strlen(ptr noundef %3) #1
  ret i64 %4
}

; Function Attrs: mustprogress nounwind uwtable
define linkonce_odr void @_ZNSt12__shared_ptrIN3nix3PosELN9__gnu_cxx12_Lock_policyE2EEC2Ev(ptr noundef nonnull align 8 dereferenceable(16) %0) unnamed_addr #2 comdat align 2 {
  %2 = alloca ptr, align 8
  store ptr %0, ptr %2, align 8
  %3 = load ptr, ptr %2, align 8
  %4 = getelementptr inbounds %"class.std::__shared_ptr", ptr %3, i32 0, i32 0
  store ptr null, ptr %4, align 8
  %5 = getelementptr inbounds %"class.std::__shared_ptr", ptr %3, i32 0, i32 1
  call void @_ZNSt14__shared_countILN9__gnu_cxx12_Lock_policyE2EEC2Ev(ptr noundef nonnull align 8 dereferenceable(8) %5) #1
  ret void
}

; Function Attrs: mustprogress nounwind uwtable
define linkonce_odr noundef ptr @_ZNSt14__array_traitsIcLm65536EE6_S_ptrERA65536_Kc(ptr noundef nonnull align 1 dereferenceable(65536) %0) #2 comdat align 2 {
  %2 = alloca ptr, align 8
  store ptr %0, ptr %2, align 8
  %3 = load ptr, ptr %2, align 8
  %4 = getelementptr inbounds [65536 x i8], ptr %3, i64 0, i64 0
  ret ptr %4
}

; Function Attrs: mustprogress nounwind uwtable
define linkonce_odr noundef ptr @_ZNKSt7__cxx1112basic_stringIcSt11char_traitsIcESaIcEE7_M_dataEv(ptr noundef nonnull align 8 dereferenceable(32) %0) #2 comdat align 2 {
  %2 = alloca ptr, align 8
  store ptr %0, ptr %2, align 8
  %3 = load ptr, ptr %2, align 8
  %4 = getelementptr inbounds %"class.std::__cxx11::basic_string", ptr %3, i32 0, i32 0
  %5 = getelementptr inbounds %"struct.std::__cxx11::basic_string<char>::_Alloc_hider", ptr %4, i32 0, i32 0
  %6 = load ptr, ptr %5, align 8
  ret ptr %6
}

; Function Attrs: mustprogress nounwind uwtable
define linkonce_odr void @_ZNSt17basic_string_viewIcSt11char_traitsIcEEC2EPKc(ptr noundef nonnull align 8 dereferenceable(16) %0, ptr noundef nonnull %1) unnamed_addr #2 comdat align 2 {
  %3 = alloca ptr, align 8
  %4 = alloca ptr, align 8
  store ptr %0, ptr %3, align 8
  store ptr %1, ptr %4, align 8
  %5 = load ptr, ptr %3, align 8
  %6 = getelementptr inbounds %"class.std::basic_string_view", ptr %5, i32 0, i32 0
  %7 = load ptr, ptr %4, align 8
  %8 = call noundef i64 @_ZNSt11char_traitsIcE6lengthEPKc(ptr noundef %7)
  store i64 %8, ptr %6, align 8
  %9 = getelementptr inbounds %"class.std::basic_string_view", ptr %5, i32 0, i32 1
  %10 = load ptr, ptr %4, align 8
  store ptr %10, ptr %9, align 8
  ret void
}

; Function Attrs: mustprogress nounwind uwtable
define linkonce_odr void @_ZNSt10shared_ptrIN3nix3PosEEC2Ev(ptr noundef nonnull align 8 dereferenceable(16) %0) unnamed_addr #2 comdat align 2 {
  %2 = alloca ptr, align 8
  store ptr %0, ptr %2, align 8
  %3 = load ptr, ptr %2, align 8
  call void @_ZNSt12__shared_ptrIN3nix3PosELN9__gnu_cxx12_Lock_policyE2EEC2Ev(ptr noundef nonnull align 8 dereferenceable(16) %3) #1
  ret void
}

; Function Attrs: mustprogress nounwind uwtable
define linkonce_odr void @_ZNSt17basic_string_viewIcSt11char_traitsIcEEC2EPKcm(ptr noundef nonnull align 8 dereferenceable(16) %0, ptr noundef %1, i64 noundef %2) unnamed_addr #2 comdat align 2 {
  %4 = alloca ptr, align 8
  %5 = alloca ptr, align 8
  %6 = alloca i64, align 8
  store ptr %0, ptr %4, align 8
  store ptr %1, ptr %5, align 8
  store i64 %2, ptr %6, align 8
  %7 = load ptr, ptr %4, align 8
  %8 = getelementptr inbounds %"class.std::basic_string_view", ptr %7, i32 0, i32 0
  %9 = load i64, ptr %6, align 8
  store i64 %9, ptr %8, align 8
  %10 = getelementptr inbounds %"class.std::basic_string_view", ptr %7, i32 0, i32 1
  %11 = load ptr, ptr %5, align 8
  store ptr %11, ptr %10, align 8
  ret void
}

; Function Attrs: mustprogress nounwind willreturn memory(none) uwtable
define linkonce_odr noundef i64 @_ZNKSt5arrayIcLm65536EE4sizeEv(ptr noundef nonnull align 1 dereferenceable(65536) %0) #11 comdat align 2 {
  %2 = alloca ptr, align 8
  store ptr %0, ptr %2, align 8
  ret i64 65536
}

; Function Attrs: mustprogress nounwind willreturn memory(none) uwtable
define linkonce_odr noundef ptr @_ZNSt5arrayIcLm65536EE4dataEv(ptr noundef nonnull align 1 dereferenceable(65536) %0) #11 comdat align 2 {
  %2 = alloca ptr, align 8
  store ptr %0, ptr %2, align 8
  %3 = load ptr, ptr %2, align 8
  %4 = getelementptr inbounds %"struct.std::array", ptr %3, i32 0, i32 0
  %5 = call noundef ptr @_ZNSt14__array_traitsIcLm65536EE6_S_ptrERA65536_Kc(ptr noundef nonnull align 1 dereferenceable(65536) %4) #1
  ret ptr %5
}

; Function Attrs: mustprogress uwtable
define linkonce_odr void @_ZN3nix8SysErrorC2IJA19_cNSt7__cxx1112basic_stringIcSt11char_traitsIcESaIcEEEEEEDpRKT_(ptr noundef nonnull align 8 dereferenceable(380) %0, ptr noundef nonnull align 1 dereferenceable(19) %1, ptr noundef nonnull align 8 dereferenceable(32) %2) unnamed_addr #3 comdat align 2 {
  %4 = alloca ptr, align 8
  %5 = alloca ptr, align 8
  %6 = alloca ptr, align 8
  store ptr %0, ptr %4, align 8
  store ptr %1, ptr %5, align 8
  store ptr %2, ptr %6, align 8
  %7 = load ptr, ptr %4, align 8
  %8 = call ptr @__errno_location() #22
  %9 = load i32, ptr %8, align 4
  %10 = load ptr, ptr %5, align 8
  %11 = load ptr, ptr %6, align 8
  call void @_ZN3nix8SysErrorC2IJA19_cNSt7__cxx1112basic_stringIcSt11char_traitsIcESaIcEEEEEEiDpRKT_(ptr noundef nonnull align 8 dereferenceable(380) %7, i32 noundef %9, ptr noundef nonnull align 1 dereferenceable(19) %10, ptr noundef nonnull align 8 dereferenceable(32) %11)
  ret void
}

; Function Attrs: mustprogress nounwind uwtable
define linkonce_odr noundef ptr @_ZNKSt7__cxx1112basic_stringIcSt11char_traitsIcESaIcEE5c_strEv(ptr noundef nonnull align 8 dereferenceable(32) %0) #2 comdat align 2 {
  %2 = alloca ptr, align 8
  store ptr %0, ptr %2, align 8
  %3 = load ptr, ptr %2, align 8
  %4 = call noundef ptr @_ZNKSt7__cxx1112basic_stringIcSt11char_traitsIcESaIcEE7_M_dataEv(ptr noundef nonnull align 8 dereferenceable(32) %3)
  ret ptr %4
}

; Function Attrs: mustprogress uwtable
define void @_ZN3nix9writeFileERKNSt7__cxx1112basic_stringIcSt11char_traitsIcESaIcEEERNS_6SourceEjb(ptr noundef nonnull align 8 dereferenceable(32) %0, ptr noundef nonnull align 8 dereferenceable(8) %1, i32 noundef %2, i1 noundef zeroext %3) #3 personality ptr @__gxx_personality_v0 {
  %5 = alloca ptr, align 8
  %6 = alloca ptr, align 8
  %7 = alloca i32, align 4
  %8 = alloca i8, align 1
  %9 = alloca %"class.nix::AutoCloseFD", align 4
  %10 = alloca ptr, align 8
  %11 = alloca i32, align 4
  %12 = alloca %"struct.std::array", align 1
  %13 = alloca i64, align 8
  %14 = alloca %"class.std::basic_string_view", align 8
  %15 = alloca ptr, align 8
  %16 = alloca ptr, align 8
  %17 = alloca %"class.std::shared_ptr", align 8
  %18 = alloca %"class.std::basic_string_view", align 8
  store ptr %0, ptr %5, align 8
  store ptr %1, ptr %6, align 8
  store i32 %2, ptr %7, align 4
  %19 = zext i1 %3 to i8
  store i8 %19, ptr %8, align 1
  %20 = load ptr, ptr %5, align 8
  %21 = call noundef ptr @_ZNKSt7__cxx1112basic_stringIcSt11char_traitsIcESaIcEE5c_strEv(ptr noundef nonnull align 8 dereferenceable(32) %20) #1
  %22 = load i32, ptr %7, align 4
  %23 = call i32 (ptr, i32, ...) @open(ptr noundef %21, i32 noundef 524865, i32 noundef %22)
  call void @_ZN3nix11AutoCloseFDC1Ei(ptr noundef nonnull align 4 dereferenceable(4) %9, i32 noundef %23)
  %24 = invoke noundef zeroext i1 @_ZNK3nix11AutoCloseFDcvbEv(ptr noundef nonnull align 4 dereferenceable(4) %9)
          to label %25 unwind label %30

25:                                               ; preds = %4
  br i1 %24, label %38, label %26

26:                                               ; preds = %25
  %27 = call ptr @__cxa_allocate_exception(i64 384) #1
  %28 = load ptr, ptr %5, align 8
  invoke void @_ZN3nix8SysErrorC2IJA19_cNSt7__cxx1112basic_stringIcSt11char_traitsIcESaIcEEEEEEDpRKT_(ptr noundef nonnull align 8 dereferenceable(380) %27, ptr noundef nonnull align 1 dereferenceable(19) @.str.14, ptr noundef nonnull align 8 dereferenceable(32) %28)
          to label %29 unwind label %34

29:                                               ; preds = %26
  invoke void @__cxa_throw(ptr %27, ptr @_ZTIN3nix8SysErrorE, ptr @_ZN3nix8SysErrorD2Ev) #20
          to label %122 unwind label %30

30:                                               ; preds = %109, %105, %103, %29, %4
  %31 = landingpad { ptr, i32 }
          cleanup
  %32 = extractvalue { ptr, i32 } %31, 0
  store ptr %32, ptr %10, align 8
  %33 = extractvalue { ptr, i32 } %31, 1
  store i32 %33, ptr %11, align 4
  br label %113

34:                                               ; preds = %26
  %35 = landingpad { ptr, i32 }
          cleanup
  %36 = extractvalue { ptr, i32 } %35, 0
  store ptr %36, ptr %10, align 8
  %37 = extractvalue { ptr, i32 } %35, 1
  store i32 %37, ptr %11, align 4
  call void @__cxa_free_exception(ptr %27) #1
  br label %113

38:                                               ; preds = %25
  br label %39

39:                                               ; preds = %88, %38
  br label %40

40:                                               ; preds = %39
  %41 = load ptr, ptr %6, align 8
  %42 = call noundef ptr @_ZNSt5arrayIcLm65536EE4dataEv(ptr noundef nonnull align 1 dereferenceable(65536) %12) #22
  %43 = call noundef i64 @_ZNKSt5arrayIcLm65536EE4sizeEv(ptr noundef nonnull align 1 dereferenceable(65536) %12) #22
  %44 = load ptr, ptr %41, align 8
  %45 = getelementptr inbounds ptr, ptr %44, i64 2
  %46 = load ptr, ptr %45, align 8
  %47 = invoke noundef i64 %46(ptr noundef nonnull align 8 dereferenceable(8) %41, ptr noundef %42, i64 noundef %43)
          to label %48 unwind label %58

48:                                               ; preds = %40
  store i64 %47, ptr %13, align 8
  %49 = invoke noundef i32 @_ZNK3nix11AutoCloseFD3getEv(ptr noundef nonnull align 4 dereferenceable(4) %9)
          to label %50 unwind label %58

50:                                               ; preds = %48
  %51 = call noundef ptr @_ZNSt5arrayIcLm65536EE4dataEv(ptr noundef nonnull align 1 dereferenceable(65536) %12) #22
  %52 = load i64, ptr %13, align 8
  call void @_ZNSt17basic_string_viewIcSt11char_traitsIcEEC2EPKcm(ptr noundef nonnull align 8 dereferenceable(16) %14, ptr noundef %51, i64 noundef %52) #1
  %53 = getelementptr inbounds { i64, ptr }, ptr %14, i32 0, i32 0
  %54 = load i64, ptr %53, align 8
  %55 = getelementptr inbounds { i64, ptr }, ptr %14, i32 0, i32 1
  %56 = load ptr, ptr %55, align 8
  invoke void @_ZN3nix9writeFullEiSt17basic_string_viewIcSt11char_traitsIcEEb(i32 noundef %49, i64 %54, ptr %56, i1 noundef zeroext true)
          to label %57 unwind label %58

57:                                               ; preds = %50
  br label %88

58:                                               ; preds = %50, %48, %40
  %59 = landingpad { ptr, i32 }
          cleanup
          catch ptr @_ZTIN3nix9EndOfFileE
          catch ptr @_ZTIN3nix5ErrorE
  %60 = extractvalue { ptr, i32 } %59, 0
  store ptr %60, ptr %10, align 8
  %61 = extractvalue { ptr, i32 } %59, 1
  store i32 %61, ptr %11, align 4
  br label %62

62:                                               ; preds = %58
  %63 = load i32, ptr %11, align 4
  %64 = call i32 @llvm.eh.typeid.for(ptr @_ZTIN3nix9EndOfFileE) #1
  %65 = icmp eq i32 %63, %64
  br i1 %65, label %66, label %74

66:                                               ; preds = %62
  %67 = load ptr, ptr %10, align 8
  %68 = call ptr @__cxa_begin_catch(ptr %67) #1
  store ptr %68, ptr %15, align 8
  invoke void @__cxa_end_catch()
          to label %69 unwind label %70

69:                                               ; preds = %66
  br label %89

70:                                               ; preds = %66
  %71 = landingpad { ptr, i32 }
          cleanup
          catch ptr @_ZTIN3nix5ErrorE
  %72 = extractvalue { ptr, i32 } %71, 0
  store ptr %72, ptr %10, align 8
  %73 = extractvalue { ptr, i32 } %71, 1
  store i32 %73, ptr %11, align 4
  br label %74

74:                                               ; preds = %70, %62
  %75 = load i32, ptr %11, align 4
  %76 = call i32 @llvm.eh.typeid.for(ptr @_ZTIN3nix5ErrorE) #1
  %77 = icmp eq i32 %75, %76
  br i1 %77, label %78, label %113

78:                                               ; preds = %74
  %79 = load ptr, ptr %10, align 8
  %80 = call ptr @__cxa_begin_catch(ptr %79) #1
  store ptr %80, ptr %16, align 8
  %81 = load ptr, ptr %16, align 8
  call void @_ZNSt10shared_ptrIN3nix3PosEEC2Ev(ptr noundef nonnull align 8 dereferenceable(16) %17) #1
  call void @_ZNSt17basic_string_viewIcSt11char_traitsIcEEC2EPKc(ptr noundef nonnull align 8 dereferenceable(16) %18, ptr noundef @.str.16) #1
  %82 = load ptr, ptr %5, align 8
  %83 = getelementptr inbounds { i64, ptr }, ptr %18, i32 0, i32 0
  %84 = load i64, ptr %83, align 8
  %85 = getelementptr inbounds { i64, ptr }, ptr %18, i32 0, i32 1
  %86 = load ptr, ptr %85, align 8
  invoke void @_ZN3nix9BaseError8addTraceIJNSt7__cxx1112basic_stringIcSt11char_traitsIcESaIcEEEEEEvOSt10shared_ptrINS_3PosEESt17basic_string_viewIcS5_EDpRKT_(ptr noundef nonnull align 8 dereferenceable(376) %81, ptr noundef nonnull align 8 dereferenceable(16) %17, i64 %84, ptr %86, ptr noundef nonnull align 8 dereferenceable(32) %82)
          to label %87 unwind label %90

87:                                               ; preds = %78
  call void @_ZNSt10shared_ptrIN3nix3PosEED2Ev(ptr noundef nonnull align 8 dereferenceable(16) %17) #1
  invoke void @__cxa_rethrow() #20
          to label %122 unwind label %94

88:                                               ; preds = %57
  br label %39, !llvm.loop !10

89:                                               ; preds = %69
  br label %100

90:                                               ; preds = %78
  %91 = landingpad { ptr, i32 }
          cleanup
  %92 = extractvalue { ptr, i32 } %91, 0
  store ptr %92, ptr %10, align 8
  %93 = extractvalue { ptr, i32 } %91, 1
  store i32 %93, ptr %11, align 4
  call void @_ZNSt10shared_ptrIN3nix3PosEED2Ev(ptr noundef nonnull align 8 dereferenceable(16) %17) #1
  br label %98

94:                                               ; preds = %87
  %95 = landingpad { ptr, i32 }
          cleanup
  %96 = extractvalue { ptr, i32 } %95, 0
  store ptr %96, ptr %10, align 8
  %97 = extractvalue { ptr, i32 } %95, 1
  store i32 %97, ptr %11, align 4
  br label %98

98:                                               ; preds = %94, %90
  invoke void @__cxa_end_catch()
          to label %99 unwind label %119

99:                                               ; preds = %98
  br label %113

100:                                              ; preds = %89
  %101 = load i8, ptr %8, align 1
  %102 = trunc i8 %101 to i1
  br i1 %102, label %103, label %105

103:                                              ; preds = %100
  invoke void @_ZN3nix11AutoCloseFD5fsyncEv(ptr noundef nonnull align 4 dereferenceable(4) %9)
          to label %104 unwind label %30

104:                                              ; preds = %103
  br label %105

105:                                              ; preds = %104, %100
  invoke void @_ZN3nix11AutoCloseFD5closeEv(ptr noundef nonnull align 4 dereferenceable(4) %9)
          to label %106 unwind label %30

106:                                              ; preds = %105
  %107 = load i8, ptr %8, align 1
  %108 = trunc i8 %107 to i1
  br i1 %108, label %109, label %112

109:                                              ; preds = %106
  %110 = load ptr, ptr %5, align 8
  invoke void @_ZN3nix10syncParentERKNSt7__cxx1112basic_stringIcSt11char_traitsIcESaIcEEE(ptr noundef nonnull align 8 dereferenceable(32) %110)
          to label %111 unwind label %30

111:                                              ; preds = %109
  br label %112

112:                                              ; preds = %111, %106
  call void @_ZN3nix11AutoCloseFDD1Ev(ptr noundef nonnull align 4 dereferenceable(4) %9) #1
  ret void

113:                                              ; preds = %99, %74, %34, %30
  call void @_ZN3nix11AutoCloseFDD1Ev(ptr noundef nonnull align 4 dereferenceable(4) %9) #1
  br label %114

114:                                              ; preds = %113
  %115 = load ptr, ptr %10, align 8
  %116 = load i32, ptr %11, align 4
  %117 = insertvalue { ptr, i32 } poison, ptr %115, 0
  %118 = insertvalue { ptr, i32 } %117, i32 %116, 1
  resume { ptr, i32 } %118

119:                                              ; preds = %98
  %120 = landingpad { ptr, i32 }
          catch ptr null
  %121 = extractvalue { ptr, i32 } %120, 0
  call void @__clang_call_terminate(ptr %121) #21
  unreachable

122:                                              ; preds = %87, %29
  unreachable
}