; Function Attrs: mustprogress uwtable
define void @_ZN3nix9writeFileERKNSt7__cxx1112basic_stringIcSt11char_traitsIcESaIcEEERNS_6SourceEjb(ptr noundef nonnull align 8 dereferenceable(32) %0, ptr noundef nonnull align 8 dereferenceable(8) %1, i32 noundef %2, i1 noundef zeroext %3) local_unnamed_addr #2 personality ptr @__gxx_personality_v0 {
  %5 = alloca %"class.nix::AutoCloseFD", align 4
  %6 = alloca %"struct.std::array", align 1
  %7 = alloca %"class.std::shared_ptr", align 8
  %8 = load ptr, ptr %0, align 8
  %9 = tail call i32 (ptr, i32, ...) @open(ptr noundef %8, i32 noundef 524865, i32 noundef %2)
  call void @_ZN3nix11AutoCloseFDC1Ei(ptr noundef nonnull align 4 dereferenceable(4) %5, i32 noundef %9)
  %10 = invoke noundef zeroext i1 @_ZNK3nix11AutoCloseFDcvbEv(ptr noundef nonnull align 4 dereferenceable(4) %5)
          to label %11 unwind label %16

11:                                               ; preds = %4
  br i1 %10, label %.preheader, label %12

12:                                               ; preds = %11
  %13 = call ptr @__cxa_allocate_exception(i64 384) #29
  %14 = tail call ptr @__errno_location() #31
  %15 = load i32, ptr %14, align 4
  invoke void @_ZN3nix8SysErrorC2IJA19_cNSt7__cxx1112basic_stringIcSt11char_traitsIcESaIcEEEEEEiDpRKT_(ptr noundef nonnull align 8 dereferenceable(380) %13, i32 noundef %15, ptr noundef nonnull align 1 dereferenceable(19) @.str.14, ptr noundef nonnull align 8 dereferenceable(32) %0)
          to label %_ZN3nix8SysErrorC2IJA19_cNSt7__cxx1112basic_stringIcSt11char_traitsIcESaIcEEEEEEDpRKT_.exit unwind label %20

_ZN3nix8SysErrorC2IJA19_cNSt7__cxx1112basic_stringIcSt11char_traitsIcESaIcEEEEEEDpRKT_.exit: ; preds = %12
  invoke void @__cxa_throw(ptr nonnull %13, ptr nonnull @_ZTIN3nix8SysErrorE, ptr nonnull @_ZN3nix8SysErrorD2Ev) #32
          to label %66 unwind label %16

16:                                               ; preds = %58, %56, %55, %_ZN3nix8SysErrorC2IJA19_cNSt7__cxx1112basic_stringIcSt11char_traitsIcESaIcEEEEEEDpRKT_.exit, %4
  %17 = landingpad { ptr, i32 }
          cleanup
  %18 = extractvalue { ptr, i32 } %17, 0
  %19 = extractvalue { ptr, i32 } %17, 1
  br label %60

20:                                               ; preds = %12
  %21 = landingpad { ptr, i32 }
          cleanup
  %22 = extractvalue { ptr, i32 } %21, 0
  %23 = extractvalue { ptr, i32 } %21, 1
  call void @__cxa_free_exception(ptr %13) #29
  br label %60

.preheader:                                       ; preds = %11, %30
  %24 = load ptr, ptr %1, align 8
  %25 = getelementptr inbounds i8, ptr %24, i64 16
  %26 = load ptr, ptr %25, align 8
  %27 = invoke noundef i64 %26(ptr noundef nonnull align 8 dereferenceable(8) %1, ptr noundef nonnull %6, i64 noundef 65536)
          to label %28 unwind label %31

28:                                               ; preds = %.preheader
  %29 = invoke noundef i32 @_ZNK3nix11AutoCloseFD3getEv(ptr noundef nonnull align 4 dereferenceable(4) %5)
          to label %30 unwind label %31

30:                                               ; preds = %28
  invoke void @_ZN3nix9writeFullEiSt17basic_string_viewIcSt11char_traitsIcEEb(i32 noundef %29, i64 %27, ptr nonnull %6, i1 noundef zeroext true)
          to label %.preheader unwind label %31, !llvm.loop !45

31:                                               ; preds = %30, %28, %.preheader
  %32 = landingpad { ptr, i32 }
          cleanup
          catch ptr @_ZTIN3nix9EndOfFileE
          catch ptr @_ZTIN3nix5ErrorE
  %33 = extractvalue { ptr, i32 } %32, 0
  %34 = extractvalue { ptr, i32 } %32, 1
  %35 = call i32 @llvm.eh.typeid.for(ptr nonnull @_ZTIN3nix9EndOfFileE) #29
  %36 = icmp eq i32 %34, %35
  br i1 %36, label %37, label %43

37:                                               ; preds = %31
  %38 = call ptr @__cxa_begin_catch(ptr %33) #29
  invoke void @__cxa_end_catch()
          to label %54 unwind label %39

39:                                               ; preds = %37
  %40 = landingpad { ptr, i32 }
          cleanup
          catch ptr @_ZTIN3nix5ErrorE
  %41 = extractvalue { ptr, i32 } %40, 0
  %42 = extractvalue { ptr, i32 } %40, 1
  br label %43

43:                                               ; preds = %39, %31
  %.015 = phi i32 [ %42, %39 ], [ %34, %31 ]
  %.0 = phi ptr [ %41, %39 ], [ %33, %31 ]
  %44 = call i32 @llvm.eh.typeid.for(ptr nonnull @_ZTIN3nix5ErrorE) #29
  %45 = icmp eq i32 %.015, %44
  br i1 %45, label %46, label %60

46:                                               ; preds = %43
  %47 = call ptr @__cxa_begin_catch(ptr %.0) #29
  call void @llvm.memset.p0.i64(ptr noundef nonnull align 8 dereferenceable(16) %7, i8 0, i64 16, i1 false)
  invoke void @_ZN3nix9BaseError8addTraceIJNSt7__cxx1112basic_stringIcSt11char_traitsIcESaIcEEEEEEvOSt10shared_ptrINS_3PosEESt17basic_string_viewIcS5_EDpRKT_(ptr noundef nonnull align 8 dereferenceable(376) %47, ptr noundef nonnull align 8 dereferenceable(16) %7, i64 18, ptr nonnull @.str.16, ptr noundef nonnull align 8 dereferenceable(32) %0)
          to label %48 unwind label %49

48:                                               ; preds = %46
  call void @_ZNSt10shared_ptrIN3nix3PosEED2Ev(ptr noundef nonnull align 8 dereferenceable(16) %7) #29
  invoke void @__cxa_rethrow() #32
          to label %66 unwind label %51

49:                                               ; preds = %46
  %50 = landingpad { ptr, i32 }
          cleanup
  call void @_ZNSt10shared_ptrIN3nix3PosEED2Ev(ptr noundef nonnull align 8 dereferenceable(16) %7) #29
  br label %53

51:                                               ; preds = %48
  %52 = landingpad { ptr, i32 }
          cleanup
  br label %53

53:                                               ; preds = %51, %49
  %.pn = phi { ptr, i32 } [ %52, %51 ], [ %50, %49 ]
  %.1 = extractvalue { ptr, i32 } %.pn, 0
  %.116 = extractvalue { ptr, i32 } %.pn, 1
  invoke void @__cxa_end_catch()
          to label %60 unwind label %63

54:                                               ; preds = %37
  br i1 %3, label %55, label %56

55:                                               ; preds = %54
  invoke void @_ZN3nix11AutoCloseFD5fsyncEv(ptr noundef nonnull align 4 dereferenceable(4) %5)
          to label %56 unwind label %16

56:                                               ; preds = %55, %54
  invoke void @_ZN3nix11AutoCloseFD5closeEv(ptr noundef nonnull align 4 dereferenceable(4) %5)
          to label %57 unwind label %16

57:                                               ; preds = %56
  br i1 %3, label %58, label %59

58:                                               ; preds = %57
  invoke void @_ZN3nix10syncParentERKNSt7__cxx1112basic_stringIcSt11char_traitsIcESaIcEEE(ptr noundef nonnull align 8 dereferenceable(32) %0)
          to label %59 unwind label %16

59:                                               ; preds = %58, %57
  call void @_ZN3nix11AutoCloseFDD1Ev(ptr noundef nonnull align 4 dereferenceable(4) %5) #29
  ret void

60:                                               ; preds = %53, %43, %20, %16
  %.217 = phi i32 [ %19, %16 ], [ %.116, %53 ], [ %.015, %43 ], [ %23, %20 ]
  %.2 = phi ptr [ %18, %16 ], [ %.1, %53 ], [ %.0, %43 ], [ %22, %20 ]
  call void @_ZN3nix11AutoCloseFDD1Ev(ptr noundef nonnull align 4 dereferenceable(4) %5) #29
  %61 = insertvalue { ptr, i32 } poison, ptr %.2, 0
  %62 = insertvalue { ptr, i32 } %61, i32 %.217, 1
  resume { ptr, i32 } %62

63:                                               ; preds = %53
  %64 = landingpad { ptr, i32 }
          catch ptr null
  %65 = extractvalue { ptr, i32 } %64, 0
  call void @__clang_call_terminate(ptr %65) #34
  unreachable

66:                                               ; preds = %48, %_ZN3nix8SysErrorC2IJA19_cNSt7__cxx1112basic_stringIcSt11char_traitsIcESaIcEEEEEEDpRKT_.exit
  unreachable
}